target datalayout = "e-m:e-p270:32:32-p271:32:32-p272:64:64-i64:64-i128:128-f80:128-n8:16:32:64-S128"
target triple = "x86_64-pc-linux-gnu"

%struct.Vec_Int_t_ = type { i32, i32, ptr }
%struct.Ga2_Man_t_ = type { ptr, ptr, ptr, ptr, ptr, ptr, ptr, i32, i32, i32, i32, i32, ptr, ptr, ptr, i32, i32, i32, i32, ptr, i32, i32, i32, i32, ptr, ptr, ptr, ptr, i64, i64, i64, i64, i64, i64 }
%struct.Abs_Par_t_ = type { i32, i32, i32, i32, i32, i32, i32, i32, i32, i32, i32, i32, i32, i32, i32, i32, i32, i32, i32, i32, i32, i32, i32, i32, i32, ptr, i32, i32, i32, i32, i32, i32 }
%struct.sat_solver2_t = type { i32, i32, i32, i32, i32, double, double, i32, i32, i32, i32, ptr, ptr, i32, i32, i32, i32, i32, i32, i32, i32, i32, i32, i32, %struct.Sat_Mem_t_, ptr, %struct.veci_t, %struct.veci_t, i32, i32, i32, ptr, ptr, ptr, ptr, ptr, ptr, ptr, ptr, %struct.veci_t, %struct.veci_t, %struct.veci_t, %struct.veci_t, %struct.veci_t, %struct.veci_t, %struct.veci_t, %struct.veci_t, %struct.veci_t, %struct.veci_t, ptr, %struct.veci_t, i32, i32, ptr, double, ptr, i32, %struct.stats_t, i64, i64, i64 }
%struct.Sat_Mem_t_ = type { [2 x i32], [2 x i32], [2 x i32], [2 x i32], i32, i32, i32, i32, ptr }
%struct.veci_t = type { i32, i32, ptr }
%struct.stats_t = type { i32, i32, i32, i64, i64, i64, i64, i64, i64, i64 }

; Function Attrs: nounwind uwtable
define internal i64 @sat_solver2_set_runtime_limit(ptr noundef %0, i64 noundef %1) #0 {
  %3 = alloca ptr, align 8
  %4 = alloca i64, align 8
  %5 = alloca i64, align 8
  store ptr %0, ptr %3, align 8
  store i64 %1, ptr %4, align 8
  %6 = load ptr, ptr %3, align 8
  %7 = getelementptr inbounds %struct.sat_solver2_t, ptr %6, i32 0, i32 60
  %8 = load i64, ptr %7, align 8
  store i64 %8, ptr %5, align 8
  %9 = load i64, ptr %4, align 8
  %10 = load ptr, ptr %3, align 8
  %11 = getelementptr inbounds %struct.sat_solver2_t, ptr %10, i32 0, i32 60
  store i64 %9, ptr %11, align 8
  %12 = load i64, ptr %5, align 8
  ret i64 %12
}

; Function Attrs: nounwind uwtable
define internal i32 @Vec_IntSize(ptr noundef %0) #0 {
  %2 = alloca ptr, align 8
  store ptr %0, ptr %2, align 8
  %3 = load ptr, ptr %2, align 8
  %4 = getelementptr inbounds %struct.Vec_Int_t_, ptr %3, i32 0, i32 1
  %5 = load i32, ptr %4, align 4
  ret i32 %5
}

; Function Attrs: nounwind uwtable
define internal void @Vec_IntFree(ptr noundef %0) #0 {
  %2 = alloca ptr, align 8
  store ptr %0, ptr %2, align 8
  %3 = load ptr, ptr %2, align 8
  %4 = getelementptr inbounds %struct.Vec_Int_t_, ptr %3, i32 0, i32 2
  %5 = load ptr, ptr %4, align 8
  %6 = icmp ne ptr %5, null
  br i1 %6, label %7, label %13

7:                                                ; preds = %1
  %8 = load ptr, ptr %2, align 8
  %9 = getelementptr inbounds %struct.Vec_Int_t_, ptr %8, i32 0, i32 2
  %10 = load ptr, ptr %9, align 8
  call void @free(ptr noundef %10) #12
  %11 = load ptr, ptr %2, align 8
  %12 = getelementptr inbounds %struct.Vec_Int_t_, ptr %11, i32 0, i32 2
  store ptr null, ptr %12, align 8
  br label %14

13:                                               ; preds = %1
  br label %14

14:                                               ; preds = %13, %7
  %15 = load ptr, ptr %2, align 8
  %16 = icmp ne ptr %15, null
  br i1 %16, label %17, label %19

17:                                               ; preds = %14
  %18 = load ptr, ptr %2, align 8
  call void @free(ptr noundef %18) #12
  store ptr null, ptr %2, align 8
  br label %20

19:                                               ; preds = %14
  br label %20

20:                                               ; preds = %19, %17
  ret void
}

; Function Attrs: nounwind uwtable
define void @Ga2_ManRestart(ptr noundef %0) #0 {
  %2 = alloca ptr, align 8
  %3 = alloca ptr, align 8
  %4 = alloca i32, align 4
  store ptr %0, ptr %2, align 8
  store i32 1, ptr %4, align 4
  %5 = load ptr, ptr %2, align 8
  %6 = getelementptr inbounds %struct.Ga2_Man_t_, ptr %5, i32 0, i32 14
  %7 = load ptr, ptr %6, align 8
  %8 = icmp ne ptr %7, null
  br i1 %8, label %9, label %13

9:                                                ; preds = %1
  %10 = load ptr, ptr %2, align 8
  %11 = getelementptr inbounds %struct.Ga2_Man_t_, ptr %10, i32 0, i32 14
  %12 = load ptr, ptr %11, align 8
  call void @sat_solver2_delete(ptr noundef %12)
  br label %13

13:                                               ; preds = %9, %1
  %14 = call ptr @sat_solver2_new()
  %15 = load ptr, ptr %2, align 8
  %16 = getelementptr inbounds %struct.Ga2_Man_t_, ptr %15, i32 0, i32 14
  store ptr %14, ptr %16, align 8
  %17 = load ptr, ptr %2, align 8
  %18 = getelementptr inbounds %struct.Ga2_Man_t_, ptr %17, i32 0, i32 1
  %19 = load ptr, ptr %18, align 8
  %20 = getelementptr inbounds %struct.Abs_Par_t_, ptr %19, i32 0, i32 5
  %21 = load i32, ptr %20, align 4
  %22 = load ptr, ptr %2, align 8
  %23 = getelementptr inbounds %struct.Ga2_Man_t_, ptr %22, i32 0, i32 14
  %24 = load ptr, ptr %23, align 8
  %25 = getelementptr inbounds %struct.sat_solver2_t, ptr %24, i32 0, i32 16
  store i32 %21, ptr %25, align 4
  %26 = load ptr, ptr %2, align 8
  %27 = getelementptr inbounds %struct.Ga2_Man_t_, ptr %26, i32 0, i32 1
  %28 = load ptr, ptr %27, align 8
  %29 = getelementptr inbounds %struct.Abs_Par_t_, ptr %28, i32 0, i32 6
  %30 = load i32, ptr %29, align 8
  %31 = load ptr, ptr %2, align 8
  %32 = getelementptr inbounds %struct.Ga2_Man_t_, ptr %31, i32 0, i32 14
  %33 = load ptr, ptr %32, align 8
  %34 = getelementptr inbounds %struct.sat_solver2_t, ptr %33, i32 0, i32 17
  store i32 %30, ptr %34, align 8
  %35 = load ptr, ptr %2, align 8
  %36 = getelementptr inbounds %struct.Ga2_Man_t_, ptr %35, i32 0, i32 1
  %37 = load ptr, ptr %36, align 8
  %38 = getelementptr inbounds %struct.Abs_Par_t_, ptr %37, i32 0, i32 7
  %39 = load i32, ptr %38, align 4
  %40 = load ptr, ptr %2, align 8
  %41 = getelementptr inbounds %struct.Ga2_Man_t_, ptr %40, i32 0, i32 14
  %42 = load ptr, ptr %41, align 8
  %43 = getelementptr inbounds %struct.sat_solver2_t, ptr %42, i32 0, i32 18
  store i32 %39, ptr %43, align 4
  %44 = load ptr, ptr %2, align 8
  %45 = getelementptr inbounds %struct.Ga2_Man_t_, ptr %44, i32 0, i32 14
  %46 = load ptr, ptr %45, align 8
  %47 = getelementptr inbounds %struct.sat_solver2_t, ptr %46, i32 0, i32 16
  %48 = load i32, ptr %47, align 4
  %49 = load ptr, ptr %2, align 8
  %50 = getelementptr inbounds %struct.Ga2_Man_t_, ptr %49, i32 0, i32 14
  %51 = load ptr, ptr %50, align 8
  %52 = getelementptr inbounds %struct.sat_solver2_t, ptr %51, i32 0, i32 15
  store i32 %48, ptr %52, align 8
  %53 = load ptr, ptr %2, align 8
  %54 = getelementptr inbounds %struct.Ga2_Man_t_, ptr %53, i32 0, i32 14
  %55 = load ptr, ptr %54, align 8
  %56 = getelementptr inbounds i32, ptr %4, i64 1
  %57 = call i32 @sat_solver2_addclause(ptr noundef %55, ptr noundef %4, ptr noundef %56, i32 noundef -1)
  %58 = load ptr, ptr %2, align 8
  call void @Ga2_ManShrinkAbs(ptr noundef %58, i32 noundef 1, i32 noundef 1, i32 noundef 1)
  %59 = load ptr, ptr %2, align 8
  %60 = getelementptr inbounds %struct.Ga2_Man_t_, ptr %59, i32 0, i32 0
  %61 = load ptr, ptr %60, align 8
  %62 = call ptr @Ga2_ManAbsDerive(ptr noundef %61)
  store ptr %62, ptr %3, align 8
  %63 = load ptr, ptr %2, align 8
  %64 = load ptr, ptr %3, align 8
  call void @Ga2_ManAddToAbs(ptr noundef %63, ptr noundef %64)
  %65 = load ptr, ptr %3, align 8
  call void @Vec_IntFree(ptr noundef %65)
  %66 = load ptr, ptr %2, align 8
  %67 = getelementptr inbounds %struct.Ga2_Man_t_, ptr %66, i32 0, i32 5
  %68 = load ptr, ptr %67, align 8
  %69 = call i32 @Vec_IntSize(ptr noundef %68)
  %70 = load ptr, ptr %2, align 8
  %71 = getelementptr inbounds %struct.Ga2_Man_t_, ptr %70, i32 0, i32 8
  store i32 %69, ptr %71, align 4
  %72 = load ptr, ptr %2, align 8
  %73 = getelementptr inbounds %struct.Ga2_Man_t_, ptr %72, i32 0, i32 6
  %74 = load ptr, ptr %73, align 8
  %75 = call i32 @Vec_IntSize(ptr noundef %74)
  %76 = load ptr, ptr %2, align 8
  %77 = getelementptr inbounds %struct.Ga2_Man_t_, ptr %76, i32 0, i32 9
  store i32 %75, ptr %77, align 8
  %78 = load ptr, ptr %2, align 8
  %79 = getelementptr inbounds %struct.Ga2_Man_t_, ptr %78, i32 0, i32 1
  %80 = load ptr, ptr %79, align 8
  %81 = getelementptr inbounds %struct.Abs_Par_t_, ptr %80, i32 0, i32 8
  %82 = load i32, ptr %81, align 8
  %83 = icmp ne i32 %82, 0
  br i1 %83, label %84, label %100

84:                                               ; preds = %13
  %85 = load ptr, ptr %2, align 8
  %86 = getelementptr inbounds %struct.Ga2_Man_t_, ptr %85, i32 0, i32 14
  %87 = load ptr, ptr %86, align 8
  %88 = load ptr, ptr %2, align 8
  %89 = getelementptr inbounds %struct.Ga2_Man_t_, ptr %88, i32 0, i32 1
  %90 = load ptr, ptr %89, align 8
  %91 = getelementptr inbounds %struct.Abs_Par_t_, ptr %90, i32 0, i32 8
  %92 = load i32, ptr %91, align 8
  %93 = sext i32 %92 to i64
  %94 = mul nsw i64 %93, 1000000
  %95 = load ptr, ptr %2, align 8
  %96 = getelementptr inbounds %struct.Ga2_Man_t_, ptr %95, i32 0, i32 28
  %97 = load i64, ptr %96, align 8
  %98 = add nsw i64 %94, %97
  %99 = call i64 @sat_solver2_set_runtime_limit(ptr noundef %87, i64 noundef %98)
  br label %100

100:                                              ; preds = %84, %13
  %101 = load ptr, ptr %2, align 8
  %102 = getelementptr inbounds %struct.Ga2_Man_t_, ptr %101, i32 0, i32 19
  %103 = load ptr, ptr %102, align 8
  %104 = load ptr, ptr %2, align 8
  %105 = getelementptr inbounds %struct.Ga2_Man_t_, ptr %104, i32 0, i32 20
  %106 = load i32, ptr %105, align 8
  %107 = sext i32 %106 to i64
  %108 = mul i64 24, %107
  call void @llvm.memset.p0.i64(ptr align 4 %103, i8 0, i64 %108, i1 false)
  ret void
}