; Function Attrs: nounwind uwtable
define void @Ga2_ManRestart(ptr noundef captures(none) %0) local_unnamed_addr #4 {
  %2 = alloca i32, align 4
  store i32 1, ptr %2, align 4
  %3 = getelementptr inbounds nuw i8, ptr %0, i64 96
  %4 = load ptr, ptr %3, align 8
  %.not = icmp eq ptr %4, null
  br i1 %.not, label %6, label %5

5:                                                ; preds = %1
  tail call void @sat_solver2_delete(ptr noundef nonnull %4) #28
  br label %6

6:                                                ; preds = %5, %1
  %7 = tail call ptr @sat_solver2_new() #28
  store ptr %7, ptr %3, align 8
  %8 = getelementptr inbounds nuw i8, ptr %0, i64 8
  %9 = load ptr, ptr %8, align 8
  %10 = getelementptr inbounds nuw i8, ptr %9, i64 20
  %11 = load i32, ptr %10, align 4
  %12 = getelementptr inbounds nuw i8, ptr %7, i64 84
  store i32 %11, ptr %12, align 4
  %13 = load ptr, ptr %8, align 8
  %14 = getelementptr inbounds nuw i8, ptr %13, i64 24
  %15 = load i32, ptr %14, align 8
  %16 = load ptr, ptr %3, align 8
  %17 = getelementptr inbounds nuw i8, ptr %16, i64 88
  store i32 %15, ptr %17, align 8
  %18 = load ptr, ptr %8, align 8
  %19 = getelementptr inbounds nuw i8, ptr %18, i64 28
  %20 = load i32, ptr %19, align 4
  %21 = load ptr, ptr %3, align 8
  %22 = getelementptr inbounds nuw i8, ptr %21, i64 92
  store i32 %20, ptr %22, align 4
  %23 = load ptr, ptr %3, align 8
  %24 = getelementptr inbounds nuw i8, ptr %23, i64 84
  %25 = load i32, ptr %24, align 4
  %26 = getelementptr inbounds nuw i8, ptr %23, i64 80
  store i32 %25, ptr %26, align 8
  %27 = load ptr, ptr %3, align 8
  %28 = getelementptr inbounds nuw i8, ptr %2, i64 4
  %29 = call i32 @sat_solver2_addclause(ptr noundef %27, ptr noundef nonnull %2, ptr noundef nonnull %28, i32 noundef -1) #28
  call void @Ga2_ManShrinkAbs(ptr noundef nonnull %0, i32 noundef 1, i32 noundef 1, i32 noundef 1)
  %30 = load ptr, ptr %0, align 8
  %31 = call ptr @Ga2_ManAbsDerive(ptr noundef %30)
  call void @Ga2_ManAddToAbs(ptr noundef nonnull %0, ptr noundef %31)
  %32 = getelementptr inbounds nuw i8, ptr %31, i64 8
  %33 = load ptr, ptr %32, align 8
  %.not.i = icmp eq ptr %33, null
  br i1 %.not.i, label %Vec_IntFree.exit, label %34

34:                                               ; preds = %6
  call void @free(ptr noundef nonnull %33) #28
  br label %Vec_IntFree.exit

Vec_IntFree.exit:                                 ; preds = %6, %34
  call void @free(ptr noundef nonnull %31) #28
  %35 = getelementptr inbounds nuw i8, ptr %0, i64 40
  %36 = load ptr, ptr %35, align 8
  %37 = getelementptr i8, ptr %36, i64 4
  %.val29 = load i32, ptr %37, align 4
  %38 = getelementptr inbounds nuw i8, ptr %0, i64 60
  store i32 %.val29, ptr %38, align 4
  %39 = getelementptr inbounds nuw i8, ptr %0, i64 48
  %40 = load ptr, ptr %39, align 8
  %41 = getelementptr i8, ptr %40, i64 4
  %.val = load i32, ptr %41, align 4
  %42 = getelementptr inbounds nuw i8, ptr %0, i64 64
  store i32 %.val, ptr %42, align 8
  %43 = load ptr, ptr %8, align 8
  %44 = getelementptr inbounds nuw i8, ptr %43, i64 32
  %45 = load i32, ptr %44, align 8
  %.not28 = icmp eq i32 %45, 0
  br i1 %.not28, label %54, label %46

46:                                               ; preds = %Vec_IntFree.exit
  %47 = load ptr, ptr %3, align 8
  %48 = sext i32 %45 to i64
  %49 = mul nsw i64 %48, 1000000
  %50 = getelementptr inbounds nuw i8, ptr %0, i64 176
  %51 = load i64, ptr %50, align 8
  %52 = add nsw i64 %51, %49
  %53 = getelementptr inbounds nuw i8, ptr %47, i64 608
  store i64 %52, ptr %53, align 8
  br label %54

54:                                               ; preds = %46, %Vec_IntFree.exit
  %55 = getelementptr inbounds nuw i8, ptr %0, i64 120
  %56 = load ptr, ptr %55, align 8
  %57 = getelementptr inbounds nuw i8, ptr %0, i64 128
  %58 = load i32, ptr %57, align 8
  %59 = sext i32 %58 to i64
  %60 = mul nsw i64 %59, 24
  call void @llvm.memset.p0.i64(ptr align 4 %56, i8 0, i64 %60, i1 false)
  ret void
}